target datalayout = "e-m:e-p270:32:32-p271:32:32-p272:64:64-i64:64-i128:128-f80:128-n8:16:32:64-S128"
target triple = "x86_64-unknown-linux-gnu"

%struct.QNum = type { %struct.QObjectBase_, i32, %union.anon }
%struct.QObjectBase_ = type { i32, i64 }
%union.anon = type { i64 }

@.str = private unnamed_addr constant [2 x i8] c"0\00", align 1
@.str.1 = private unnamed_addr constant [23 x i8] c"../qemu/qobject/qnum.c\00", align 1
@.str.3 = private unnamed_addr constant [4 x i8] c"%ld\00", align 1
@.str.4 = private unnamed_addr constant [4 x i8] c"%lu\00", align 1
@.str.5 = private unnamed_addr constant [6 x i8] c"%.17g\00", align 1
@__PRETTY_FUNCTION__.qnum_to_string = private unnamed_addr constant [29 x i8] c"char *qnum_to_string(QNum *)\00", align 1

; Function Attrs: nounwind sspstrong uwtable
define dso_local ptr @qnum_to_string(ptr noundef %qn) #0 {
entry:
  %retval = alloca ptr, align 8
  %qn.addr = alloca ptr, align 8
  store ptr %qn, ptr %qn.addr, align 8
  %0 = load ptr, ptr %qn.addr, align 8
  %kind = getelementptr inbounds %struct.QNum, ptr %0, i32 0, i32 1
  %1 = load i32, ptr %kind, align 8
  switch i32 %1, label %sw.epilog [
    i32 0, label %sw.bb
    i32 1, label %sw.bb1
    i32 2, label %sw.bb4
  ]

sw.bb:                                            ; preds = %entry
  %2 = load ptr, ptr %qn.addr, align 8
  %u = getelementptr inbounds %struct.QNum, ptr %2, i32 0, i32 2
  %3 = load i64, ptr %u, align 8
  %call = call noalias ptr (ptr, ...) @g_strdup_printf(ptr noundef @.str.3, i64 noundef %3)
  store ptr %call, ptr %retval, align 8
  br label %return

sw.bb1:                                           ; preds = %entry
  %4 = load ptr, ptr %qn.addr, align 8
  %u2 = getelementptr inbounds %struct.QNum, ptr %4, i32 0, i32 2
  %5 = load i64, ptr %u2, align 8
  %call3 = call noalias ptr (ptr, ...) @g_strdup_printf(ptr noundef @.str.4, i64 noundef %5)
  store ptr %call3, ptr %retval, align 8
  br label %return

sw.bb4:                                           ; preds = %entry
  %6 = load ptr, ptr %qn.addr, align 8
  %u5 = getelementptr inbounds %struct.QNum, ptr %6, i32 0, i32 2
  %7 = load double, ptr %u5, align 8
  %call6 = call noalias ptr (ptr, ...) @g_strdup_printf(ptr noundef @.str.5, double noundef %7)
  store ptr %call6, ptr %retval, align 8
  br label %return

sw.epilog:                                        ; preds = %entry
  call void @__assert_fail(ptr noundef @.str, ptr noundef @.str.1, i32 noundef 175, ptr noundef @__PRETTY_FUNCTION__.qnum_to_string) #5
  unreachable

return:                                           ; preds = %sw.bb4, %sw.bb1, %sw.bb
  %8 = load ptr, ptr %retval, align 8
  ret ptr %8
}