; Function Attrs: nounwind sspstrong uwtable
define dso_local noalias ptr @qnum_to_string(ptr noundef readonly captures(none) %qn) local_unnamed_addr #0 {
entry:
  %kind = getelementptr inbounds nuw i8, ptr %qn, i64 16
  %0 = load i32, ptr %kind, align 8
  switch i32 %0, label %sw.epilog [
    i32 0, label %sw.bb
    i32 1, label %sw.bb1
    i32 2, label %sw.bb4
  ]

sw.bb:                                            ; preds = %entry
  %u = getelementptr inbounds nuw i8, ptr %qn, i64 24
  %1 = load i64, ptr %u, align 8
  %call = tail call noalias ptr (ptr, ...) @g_strdup_printf(ptr noundef nonnull @.str.3, i64 noundef %1) #7
  br label %return

sw.bb1:                                           ; preds = %entry
  %u2 = getelementptr inbounds nuw i8, ptr %qn, i64 24
  %2 = load i64, ptr %u2, align 8
  %call3 = tail call noalias ptr (ptr, ...) @g_strdup_printf(ptr noundef nonnull @.str.4, i64 noundef %2) #7
  br label %return

sw.bb4:                                           ; preds = %entry
  %u5 = getelementptr inbounds nuw i8, ptr %qn, i64 24
  %3 = load double, ptr %u5, align 8
  %call6 = tail call noalias ptr (ptr, ...) @g_strdup_printf(ptr noundef nonnull @.str.5, double noundef %3) #7
  br label %return

sw.epilog:                                        ; preds = %entry
  tail call void @__assert_fail(ptr noundef nonnull @.str, ptr noundef nonnull @.str.1, i32 noundef 175, ptr noundef nonnull @__PRETTY_FUNCTION__.qnum_to_string) #6
  unreachable

return:                                           ; preds = %sw.bb4, %sw.bb1, %sw.bb
  %retval.0 = phi ptr [ %call6, %sw.bb4 ], [ %call3, %sw.bb1 ], [ %call, %sw.bb ]
  ret ptr %retval.0
}